target datalayout = "e-m:e-p270:32:32-p271:32:32-p272:64:64-i64:64-i128:128-f80:128-n8:16:32:64-S128"
target triple = "x86_64-pc-linux-gnu"

%struct.darktable_t = type { %struct.dt_codepath_t, i32, i32, ptr, ptr, ptr, ptr, ptr, ptr, ptr, ptr, ptr, ptr, ptr, ptr, ptr, ptr, ptr, ptr, ptr, ptr, ptr, ptr, ptr, ptr, ptr, ptr, ptr, ptr, ptr, [64 x %struct.dt_pthread_mutex_t], %struct.dt_pthread_mutex_t, %struct.dt_pthread_mutex_t, %struct.dt_pthread_mutex_t, %struct.dt_pthread_mutex_t, %struct.dt_pthread_mutex_t, ptr, ptr, ptr, ptr, ptr, ptr, ptr, ptr, ptr, ptr, ptr, ptr, ptr, %struct.dt_lua_state_t, ptr, double, ptr, i32, [47 x i32], i32, i32, ptr, ptr, %struct.dt_sys_resources_t, %struct.dt_backthumb_t, %struct.dt_gimp_t }
%struct.dt_codepath_t = type { i8, [3 x i8] }
%struct.dt_pthread_mutex_t = type { %union.pthread_mutex_t }
%union.pthread_mutex_t = type { %struct.__pthread_mutex_s }
%struct.__pthread_mutex_s = type { i32, i32, i32, i32, i32, i16, i16, %struct.__pthread_internal_list }
%struct.__pthread_internal_list = type { ptr, ptr }
%struct.dt_lua_state_t = type { i32 }
%struct.dt_sys_resources_t = type { i64, i64, ptr, ptr, i32 }
%struct.dt_backthumb_t = type { double, double, i32, i32, i32, i32 }
%struct.dt_gimp_t = type { i32, ptr, ptr, i32, i32 }

@darktable = external global %struct.darktable_t, align 8
@.str.3 = private unnamed_addr constant [120 x i8] c"generated/home/dtcxzyw/WorkSpace/Projects/compilers/llvm-opt-benchmark/bench/darktable/darktable/src/common/selection.c\00", align 1
@.str.5 = private unnamed_addr constant [38 x i8] c"[sql] %s:%d, function %s(): exec \22%s\22\00", align 1
@stderr = external global ptr, align 8
@.str.7 = private unnamed_addr constant [53 x i8] c"sqlite3 error: %s:%d, function %s(), query \22%s\22: %s\0A\00", align 1
@.str.8 = private unnamed_addr constant [33 x i8] c"DELETE FROM main.selected_images\00", align 1
@__FUNCTION__.dt_selection_clear = private unnamed_addr constant [19 x i8] c"dt_selection_clear\00", align 1
@.str.26 = private unnamed_addr constant [40 x i8] c"[signal] raise %s; %s:%d, function %s()\00", align 1
@.str.27 = private unnamed_addr constant [28 x i8] c"DT_SIGNAL_SELECTION_CHANGED\00", align 1
@__FUNCTION__._selection_raise_signal = private unnamed_addr constant [24 x i8] c"_selection_raise_signal\00", align 1

; Function Attrs: nounwind uwtable
define internal void @_selection_raise_signal() #0 {
  call void @dt_act_on_reset_cache(i32 noundef 1)
  call void @dt_act_on_reset_cache(i32 noundef 0)
  br label %1

1:                                                ; preds = %0
  %2 = load i32, ptr getelementptr inbounds nuw (%struct.darktable_t, ptr @darktable, i32 0, i32 53), align 8, !tbaa !55
  %3 = and i32 %2, 1
  %4 = icmp ne i32 %3, 0
  br i1 %4, label %5, label %21

5:                                                ; preds = %1
  %6 = load i32, ptr getelementptr inbounds ([47 x i32], ptr getelementptr inbounds nuw (%struct.darktable_t, ptr @darktable, i32 0, i32 54), i64 0, i64 8), align 4, !tbaa !56
  %7 = icmp ne i32 %6, 0
  br i1 %7, label %8, label %21

8:                                                ; preds = %5
  br label %9

9:                                                ; preds = %8
  %10 = load i32, ptr getelementptr inbounds nuw (%struct.darktable_t, ptr @darktable, i32 0, i32 2), align 8, !tbaa !57
  %11 = and i32 1048576, %10
  %12 = icmp ne i32 %11, 0
  br i1 %12, label %13, label %19

13:                                               ; preds = %9
  %14 = load i32, ptr getelementptr inbounds nuw (%struct.darktable_t, ptr @darktable, i32 0, i32 2), align 8, !tbaa !57
  %15 = xor i32 %14, -1
  %16 = and i32 0, %15
  %17 = icmp ne i32 %16, 0
  br i1 %17, label %19, label %18

18:                                               ; preds = %13
  call void (ptr, ...) @dt_print_ext(ptr noundef @.str.26, ptr noundef @.str.27, ptr noundef @.str.3, i32 noundef 48, ptr noundef @__FUNCTION__._selection_raise_signal)
  br label %19

19:                                               ; preds = %18, %13, %9
  br label %20

20:                                               ; preds = %19
  br label %21

21:                                               ; preds = %20, %5, %1
  %22 = load ptr, ptr getelementptr inbounds nuw (%struct.darktable_t, ptr @darktable, i32 0, i32 13), align 8, !tbaa !58
  call void (ptr, i32, ...) @dt_control_signal_raise(ptr noundef %22, i32 noundef 8)
  br label %23

23:                                               ; preds = %21
  ret void
}

; Function Attrs: nounwind uwtable
define void @dt_selection_clear(ptr noundef %0) #0 {
  %2 = alloca ptr, align 8
  %3 = alloca i32, align 4
  store ptr %0, ptr %2, align 8, !tbaa !6
  br label %4

4:                                                ; preds = %1
  br label %5

5:                                                ; preds = %4
  %6 = load i32, ptr getelementptr inbounds nuw (%struct.darktable_t, ptr @darktable, i32 0, i32 2), align 8, !tbaa !57
  %7 = and i32 256, %6
  %8 = icmp ne i32 %7, 0
  br i1 %8, label %9, label %15

9:                                                ; preds = %5
  %10 = load i32, ptr getelementptr inbounds nuw (%struct.darktable_t, ptr @darktable, i32 0, i32 2), align 8, !tbaa !57
  %11 = xor i32 %10, -1
  %12 = and i32 0, %11
  %13 = icmp ne i32 %12, 0
  br i1 %13, label %15, label %14

14:                                               ; preds = %9
  call void (ptr, ...) @dt_print_ext(ptr noundef @.str.5, ptr noundef @.str.3, i32 noundef 194, ptr noundef @__FUNCTION__.dt_selection_clear, ptr noundef @.str.8)
  br label %15

15:                                               ; preds = %14, %9, %5
  br label %16

16:                                               ; preds = %15
  call void @llvm.lifetime.start.p0(i64 4, ptr %3) #5
  %17 = load ptr, ptr getelementptr inbounds nuw (%struct.darktable_t, ptr @darktable, i32 0, i32 18), align 8, !tbaa !61
  %18 = call ptr @dt_database_get(ptr noundef %17)
  %19 = call i32 @sqlite3_exec(ptr noundef %18, ptr noundef @.str.8, ptr noundef null, ptr noundef null, ptr noundef null)
  store i32 %19, ptr %3, align 4, !tbaa !56
  %20 = load i32, ptr %3, align 4, !tbaa !56
  %21 = icmp ne i32 %20, 0
  br i1 %21, label %22, label %28

22:                                               ; preds = %16
  %23 = load ptr, ptr @stderr, align 8, !tbaa !62
  %24 = load ptr, ptr getelementptr inbounds nuw (%struct.darktable_t, ptr @darktable, i32 0, i32 18), align 8, !tbaa !61
  %25 = call ptr @dt_database_get(ptr noundef %24)
  %26 = call ptr @sqlite3_errmsg(ptr noundef %25)
  %27 = call i32 (ptr, ptr, ...) @fprintf(ptr noundef %23, ptr noundef @.str.7, ptr noundef @.str.3, i32 noundef 194, ptr noundef @__FUNCTION__.dt_selection_clear, ptr noundef @.str.8, ptr noundef %26) #5
  br label %28

28:                                               ; preds = %22, %16
  call void @llvm.lifetime.end.p0(i64 4, ptr %3) #5
  br label %29

29:                                               ; preds = %28
  call void @_selection_raise_signal()
  %30 = load ptr, ptr getelementptr inbounds nuw (%struct.darktable_t, ptr @darktable, i32 0, i32 21), align 8, !tbaa !16
  call void @dt_collection_hint_message(ptr noundef %30)
  ret void
}