; Function Attrs: nounwind uwtable
define void @dt_selection_clear(ptr noundef readnone captures(none) %0) local_unnamed_addr #1 {
  %2 = load i32, ptr getelementptr inbounds nuw (i8, ptr @darktable, i64 8), align 8, !tbaa !54
  %3 = and i32 %2, 256
  %.not = icmp eq i32 %3, 0
  br i1 %.not, label %5, label %4

4:                                                ; preds = %1
  tail call void (ptr, ...) @dt_print_ext(ptr noundef nonnull @.str.5, ptr noundef nonnull @.str.3, i32 noundef 194, ptr noundef nonnull @__FUNCTION__.dt_selection_clear, ptr noundef nonnull @.str.8) #8
  br label %5

5:                                                ; preds = %1, %4
  %6 = load ptr, ptr getelementptr inbounds nuw (i8, ptr @darktable, i64 136), align 8, !tbaa !56
  %7 = tail call ptr @dt_database_get(ptr noundef %6) #8
  %8 = tail call i32 @sqlite3_exec(ptr noundef %7, ptr noundef nonnull @.str.8, ptr noundef null, ptr noundef null, ptr noundef null) #8
  %.not1 = icmp eq i32 %8, 0
  br i1 %.not1, label %15, label %9

9:                                                ; preds = %5
  %10 = load ptr, ptr @stderr, align 8, !tbaa !57
  %11 = load ptr, ptr getelementptr inbounds nuw (i8, ptr @darktable, i64 136), align 8, !tbaa !56
  %12 = tail call ptr @dt_database_get(ptr noundef %11) #8
  %13 = tail call ptr @sqlite3_errmsg(ptr noundef %12) #8
  %14 = tail call i32 (ptr, ptr, ...) @fprintf(ptr noundef %10, ptr noundef nonnull @.str.7, ptr noundef nonnull @.str.3, i32 noundef 194, ptr noundef nonnull @__FUNCTION__.dt_selection_clear, ptr noundef nonnull @.str.8, ptr noundef %13) #9
  br label %15

15:                                               ; preds = %9, %5
  tail call void @dt_act_on_reset_cache(i32 noundef 1) #8
  tail call void @dt_act_on_reset_cache(i32 noundef 0) #8
  %16 = load i32, ptr getelementptr inbounds nuw (i8, ptr @darktable, i64 3128), align 8, !tbaa !53
  %17 = and i32 %16, 1
  %18 = icmp ne i32 %17, 0
  %19 = load i32, ptr getelementptr inbounds nuw (i8, ptr @darktable, i64 3164), align 4
  %20 = icmp ne i32 %19, 0
  %or.cond.i = select i1 %18, i1 %20, i1 false
  br i1 %or.cond.i, label %21, label %_selection_raise_signal.exit

21:                                               ; preds = %15
  %22 = load i32, ptr getelementptr inbounds nuw (i8, ptr @darktable, i64 8), align 8, !tbaa !54
  %23 = and i32 %22, 1048576
  %.not.i = icmp eq i32 %23, 0
  br i1 %.not.i, label %_selection_raise_signal.exit, label %24

24:                                               ; preds = %21
  tail call void (ptr, ...) @dt_print_ext(ptr noundef nonnull @.str.26, ptr noundef nonnull @.str.27, ptr noundef nonnull @.str.3, i32 noundef 48, ptr noundef nonnull @__FUNCTION__._selection_raise_signal) #8
  br label %_selection_raise_signal.exit

_selection_raise_signal.exit:                     ; preds = %15, %21, %24
  %25 = load ptr, ptr getelementptr inbounds nuw (i8, ptr @darktable, i64 96), align 8, !tbaa !55
  tail call void (ptr, i32, ...) @dt_control_signal_raise(ptr noundef %25, i32 noundef 8) #8
  %26 = load ptr, ptr getelementptr inbounds nuw (i8, ptr @darktable, i64 160), align 8, !tbaa !13
  tail call void @dt_collection_hint_message(ptr noundef %26) #8
  ret void
}